target datalayout = "e-m:e-p270:32:32-p271:32:32-p272:64:64-i64:64-i128:128-f80:128-n8:16:32:64-S128"
target triple = "x86_64-pc-linux-gnu"

%class.AccessFlags = type { i32 }
%class.ThreadShadow = type <{ ptr, ptr, ptr, i32, [4 x i8] }>

@_ZN6MethodC1EP11ConstMethod11AccessFlagsP6Symbol = hidden unnamed_addr alias void (ptr, ptr, i32, ptr), ptr @_ZN6MethodC2EP11ConstMethod11AccessFlagsP6Symbol

; Function Attrs: mustprogress nounwind uwtable
define linkonce_odr hidden noundef i32 @_Z10align_downIiiTnNSt9enable_ifIXcvbsr3std11is_integralIT_EE5valueEiE4typeELi0EES1_S1_T0_(i32 noundef %0, i32 noundef %1) #1 comdat {
  %3 = alloca i32, align 4
  %4 = alloca i32, align 4
  %5 = alloca i32, align 4
  store i32 %0, ptr %3, align 4
  store i32 %1, ptr %4, align 4
  %6 = load i32, ptr %3, align 4
  %7 = load i32, ptr %4, align 4
  %8 = call noundef i32 @_ZL14alignment_maskIiTnNSt9enable_ifIXcvbsr3std11is_integralIT_EE5valueEiE4typeELi0EES1_S1_(i32 noundef %7)
  %9 = xor i32 %8, -1
  %10 = and i32 %6, %9
  store i32 %10, ptr %5, align 4
  %11 = load i32, ptr %5, align 4
  ret i32 %11
}

; Function Attrs: mustprogress nounwind uwtable
define linkonce_odr hidden noundef i32 @_Z12checked_castIiiET_T0_(i32 noundef %0) #1 comdat {
  %2 = alloca i32, align 4
  %3 = alloca i32, align 4
  store i32 %0, ptr %2, align 4
  %4 = load i32, ptr %2, align 4
  store i32 %4, ptr %3, align 4
  %5 = load i32, ptr %3, align 4
  ret i32 %5
}

; Function Attrs: mustprogress nounwind uwtable
define internal noundef i32 @_ZL14alignment_maskIiTnNSt9enable_ifIXcvbsr3std11is_integralIT_EE5valueEiE4typeELi0EES1_S1_(i32 noundef %0) #1 {
  %2 = alloca i32, align 4
  store i32 %0, ptr %2, align 4
  %3 = load i32, ptr %2, align 4
  %4 = sub nsw i32 %3, 1
  ret i32 %4
}

; Function Attrs: mustprogress nounwind uwtable
define linkonce_odr hidden noundef i32 @_Z19align_metadata_sizeIiET_S0_(i32 noundef %0) #1 comdat {
  %2 = alloca i32, align 4
  store i32 %0, ptr %2, align 4
  %3 = load i32, ptr %2, align 4
  %4 = call noundef i32 @_Z8align_upIiiTnNSt9enable_ifIXcvbsr3std11is_integralIT_EE5valueEiE4typeELi0EES1_S1_T0_(i32 noundef %3, i32 noundef 1)
  ret i32 %4
}

; Function Attrs: mustprogress nounwind uwtable
define linkonce_odr hidden noundef i32 @_ZN6Method11header_sizeEv() #1 comdat align 2 {
  %1 = call noundef i32 @_Z8align_upIiiTnNSt9enable_ifIXcvbsr3std11is_integralIT_EE5valueEiE4typeELi0EES1_S1_T0_(i32 noundef 88, i32 noundef 8)
  %2 = sdiv i32 %1, 8
  ret i32 %2
}

; Function Attrs: mustprogress nounwind uwtable
define linkonce_odr hidden noundef i32 @_Z8align_upIiiTnNSt9enable_ifIXcvbsr3std11is_integralIT_EE5valueEiE4typeELi0EES1_S1_T0_(i32 noundef %0, i32 noundef %1) #1 comdat {
  %3 = alloca i32, align 4
  %4 = alloca i32, align 4
  %5 = alloca i32, align 4
  store i32 %0, ptr %3, align 4
  store i32 %1, ptr %4, align 4
  %6 = load i32, ptr %3, align 4
  %7 = load i32, ptr %4, align 4
  %8 = call noundef i32 @_ZL14alignment_maskIiTnNSt9enable_ifIXcvbsr3std11is_integralIT_EE5valueEiE4typeELi0EES1_S1_(i32 noundef %7)
  %9 = add nsw i32 %6, %8
  %10 = call noundef i32 @_Z12checked_castIiiET_T0_(i32 noundef %9)
  store i32 %10, ptr %5, align 4
  %11 = load i32, ptr %5, align 4
  %12 = load i32, ptr %4, align 4
  %13 = call noundef i32 @_Z10align_downIiiTnNSt9enable_ifIXcvbsr3std11is_integralIT_EE5valueEiE4typeELi0EES1_S1_T0_(i32 noundef %11, i32 noundef %12)
  ret i32 %13
}

; Function Attrs: mustprogress nounwind uwtable
define hidden noundef i32 @_ZN6Method4sizeEb(i1 noundef zeroext %0) #1 align 2 {
  %2 = alloca i8, align 1
  %3 = alloca i32, align 4
  %4 = alloca i32, align 4
  %5 = zext i1 %0 to i8
  store i8 %5, ptr %2, align 1
  %6 = load i8, ptr %2, align 1
  %7 = trunc i8 %6 to i1
  %8 = select i1 %7, i64 16, i64 0
  %9 = trunc i64 %8 to i32
  store i32 %9, ptr %3, align 4
  %10 = load i32, ptr %3, align 4
  %11 = call noundef i32 @_Z8align_upIiiTnNSt9enable_ifIXcvbsr3std11is_integralIT_EE5valueEiE4typeELi0EES1_S1_T0_(i32 noundef %10, i32 noundef 8)
  %12 = sdiv i32 %11, 8
  store i32 %12, ptr %4, align 4
  %13 = call noundef i32 @_ZN6Method11header_sizeEv()
  %14 = load i32, ptr %4, align 4
  %15 = add nsw i32 %13, %14
  %16 = call noundef i32 @_Z19align_metadata_sizeIiET_S0_(i32 noundef %15)
  ret i32 %16
}

; Function Attrs: mustprogress nounwind uwtable
define linkonce_odr hidden noundef zeroext i1 @_ZNK11AccessFlags9is_nativeEv(ptr noundef nonnull align 4 dereferenceable(4) %0) #1 comdat align 2 {
  %2 = alloca ptr, align 8
  store ptr %0, ptr %2, align 8
  %3 = load ptr, ptr %2, align 8
  %4 = getelementptr inbounds %class.AccessFlags, ptr %3, i32 0, i32 0
  %5 = load i32, ptr %4, align 4
  %6 = and i32 %5, 256
  %7 = icmp ne i32 %6, 0
  ret i1 %7
}

; Function Attrs: mustprogress nounwind uwtable
define linkonce_odr hidden noundef zeroext i1 @_ZNK12ThreadShadow21has_pending_exceptionEv(ptr noundef nonnull align 8 dereferenceable(28) %0) #1 comdat align 2 {
  %2 = alloca ptr, align 8
  store ptr %0, ptr %2, align 8
  %3 = load ptr, ptr %2, align 8
  %4 = getelementptr inbounds %class.ThreadShadow, ptr %3, i32 0, i32 1
  %5 = load ptr, ptr %4, align 8
  %6 = icmp ne ptr %5, null
  ret i1 %6
}

; Function Attrs: mustprogress nounwind uwtable
define hidden noundef ptr @_ZN6Method8allocateEP15ClassLoaderDatai11AccessFlagsP16InlineTableSizesN11ConstMethod10MethodTypeEP6SymbolP10JavaThread(ptr noundef %0, i32 noundef %1, i32 %2, ptr noundef %3, i32 noundef %4, ptr noundef %5, ptr noundef %6) #1 align 2 {
  %8 = alloca ptr, align 8
  %9 = alloca %class.AccessFlags, align 4
  %10 = alloca ptr, align 8
  %11 = alloca i32, align 4
  %12 = alloca ptr, align 8
  %13 = alloca i32, align 4
  %14 = alloca ptr, align 8
  %15 = alloca ptr, align 8
  %16 = alloca ptr, align 8
  %17 = alloca i32, align 4
  %18 = alloca %class.AccessFlags, align 4
  %19 = getelementptr inbounds %class.AccessFlags, ptr %9, i32 0, i32 0
  store i32 %2, ptr %19, align 4
  store ptr %0, ptr %10, align 8
  store i32 %1, ptr %11, align 4
  store ptr %3, ptr %12, align 8
  store i32 %4, ptr %13, align 4
  store ptr %5, ptr %14, align 8
  store ptr %6, ptr %15, align 8
  %20 = load ptr, ptr %10, align 8
  %21 = load i32, ptr %11, align 4
  %22 = load ptr, ptr %12, align 8
  %23 = load i32, ptr %13, align 4
  %24 = load ptr, ptr %15, align 8
  %25 = call noundef ptr @_ZN11ConstMethod8allocateEP15ClassLoaderDataiP16InlineTableSizesNS_10MethodTypeEP10JavaThread(ptr noundef %20, i32 noundef %21, ptr noundef %22, i32 noundef %23, ptr noundef %24)
  store ptr %25, ptr %16, align 8
  %26 = load ptr, ptr %15, align 8
  %27 = call noundef zeroext i1 @_ZNK12ThreadShadow21has_pending_exceptionEv(ptr noundef nonnull align 8 dereferenceable(28) %26)
  br i1 %27, label %28, label %29

28:                                               ; preds = %7
  store ptr null, ptr %8, align 8
  br label %45

29:                                               ; preds = %7
  %30 = call noundef zeroext i1 @_ZNK11AccessFlags9is_nativeEv(ptr noundef nonnull align 4 dereferenceable(4) %9)
  %31 = call noundef i32 @_ZN6Method4sizeEb(i1 noundef zeroext %30)
  store i32 %31, ptr %17, align 4
  %32 = load ptr, ptr %10, align 8
  %33 = load i32, ptr %17, align 4
  %34 = sext i32 %33 to i64
  %35 = load ptr, ptr %15, align 8
  %36 = call noundef ptr @_ZN12MetaspaceObjnwEmP15ClassLoaderDatamNS_4TypeEP10JavaThread(i64 noundef 88, ptr noundef %32, i64 noundef %34, i32 noundef 7, ptr noundef %35) #10
  %37 = icmp eq ptr %36, null
  br i1 %37, label %43, label %38

38:                                               ; preds = %29
  %39 = load ptr, ptr %16, align 8
  call void @llvm.memcpy.p0.p0.i64(ptr align 4 %18, ptr align 4 %9, i64 4, i1 false)
  %40 = load ptr, ptr %14, align 8
  %41 = getelementptr inbounds %class.AccessFlags, ptr %18, i32 0, i32 0
  %42 = load i32, ptr %41, align 4
  call void @_ZN6MethodC1EP11ConstMethod11AccessFlagsP6Symbol(ptr noundef nonnull align 8 dereferenceable(88) %36, ptr noundef %39, i32 %42, ptr noundef %40)
  br label %43

43:                                               ; preds = %38, %29
  %44 = phi ptr [ %36, %38 ], [ null, %29 ]
  store ptr %44, ptr %8, align 8
  br label %45

45:                                               ; preds = %43, %28
  %46 = load ptr, ptr %8, align 8
  ret ptr %46
}