; Function Attrs: mustprogress nounwind uwtable
define hidden noundef ptr @_ZN6Method8allocateEP15ClassLoaderDatai11AccessFlagsP16InlineTableSizesN11ConstMethod10MethodTypeEP6SymbolP10JavaThread(ptr noundef %0, i32 noundef %1, i32 %2, ptr noundef %3, i32 noundef %4, ptr nocapture noundef readnone %5, ptr noundef %6) local_unnamed_addr #0 align 2 {
  %8 = tail call noundef ptr @_ZN11ConstMethod8allocateEP15ClassLoaderDataiP16InlineTableSizesNS_10MethodTypeEP10JavaThread(ptr noundef %0, i32 noundef %1, ptr noundef %3, i32 noundef %4, ptr noundef %6) #23
  %9 = getelementptr inbounds i8, ptr %6, i64 8
  %10 = load ptr, ptr %9, align 8
  %.not = icmp eq ptr %10, null
  br i1 %.not, label %11, label %17

11:                                               ; preds = %7
  %12 = and i32 %2, 256
  %.not13 = icmp eq i32 %12, 0
  %13 = select i1 %.not13, i64 11, i64 13
  %14 = tail call noundef ptr @_ZN12MetaspaceObjnwEmP15ClassLoaderDatamNS_4TypeEP10JavaThread(i64 noundef 88, ptr noundef %0, i64 noundef %13, i32 noundef 7, ptr noundef nonnull %6) #23
  %15 = icmp eq ptr %14, null
  br i1 %15, label %17, label %16

16:                                               ; preds = %11
  tail call void @_ZN6MethodC2EP11ConstMethod11AccessFlagsP6Symbol(ptr noundef nonnull align 8 dereferenceable(88) %14, ptr noundef %8, i32 %2, ptr poison)
  br label %17

17:                                               ; preds = %11, %16, %7
  %.0 = phi ptr [ null, %7 ], [ %14, %16 ], [ null, %11 ]
  ret ptr %.0
}